; Function Attrs: mustprogress uwtable
define internal noundef double @_ZN12_GLOBAL__N_112is_nra_probeclERK4goal(ptr nocapture nonnull readnone align 8 %this, ptr noundef nonnull align 8 dereferenceable(124) %g) unnamed_addr #3 align 2 {
entry:
  %p.i = alloca %"struct.(anonymous namespace)::is_non_nira_functor", align 8
  call void @llvm.lifetime.start.p0(i64 32, ptr nonnull %p.i)
  %0 = load ptr, ptr %g, align 8
  store ptr %0, ptr %p.i, align 8
  %u.i.i = getelementptr inbounds i8, ptr %p.i, i64 8
  call void @_ZN10arith_utilC1ER11ast_manager(ptr noundef nonnull align 8 dereferenceable(16) %u.i.i, ptr noundef nonnull align 8 dereferenceable(976) %0)
  %m_int.i.i = getelementptr inbounds i8, ptr %p.i, i64 24
  store <4 x i8> <i8 0, i8 1, i8 1, i8 0>, ptr %m_int.i.i, align 8
  %call1.i = call fastcc noundef zeroext i1 @_Z4testIN12_GLOBAL__N_119is_non_nira_functorEEbRK4goalRT_(ptr noundef nonnull align 8 dereferenceable(124) %g, ptr noundef nonnull align 8 dereferenceable(28) %p.i)
  br i1 %call1.i, label %_ZN12_GLOBAL__N_16is_nraERK4goal.exit.thread, label %_ZN12_GLOBAL__N_16is_nraERK4goal.exit

_ZN12_GLOBAL__N_16is_nraERK4goal.exit.thread:     ; preds = %entry
  call void @llvm.lifetime.end.p0(i64 32, ptr nonnull %p.i)
  br label %2

_ZN12_GLOBAL__N_16is_nraERK4goal.exit:            ; preds = %entry
  %call2.i = call fastcc noundef zeroext i1 @_Z4testIN12_GLOBAL__N_19has_nlmulEEbRK4goal(ptr noundef nonnull align 8 dereferenceable(124) %g)
  call void @llvm.lifetime.end.p0(i64 32, ptr nonnull %p.i)
  br i1 %call2.i, label %1, label %2

1:                                                ; preds = %_ZN12_GLOBAL__N_16is_nraERK4goal.exit
  br label %2

2:                                                ; preds = %_ZN12_GLOBAL__N_16is_nraERK4goal.exit.thread, %_ZN12_GLOBAL__N_16is_nraERK4goal.exit, %1
  %3 = phi double [ 1.000000e+00, %1 ], [ 0.000000e+00, %_ZN12_GLOBAL__N_16is_nraERK4goal.exit ], [ 0.000000e+00, %_ZN12_GLOBAL__N_16is_nraERK4goal.exit.thread ]
  ret double %3
}